; Function Attrs: null_pointer_is_valid sspstrong uwtable
define internal i32 @glusterfs_gfs3_3_op_lk_reply(ptr noundef %0, ptr readnone captures(none) %1, ptr noundef %2, ptr readnone captures(none) %3) #0 {
  %5 = load i32, ptr @hf_gluster_op_ret, align 4
  %6 = tail call i32 @dissect_rpc_uint32(ptr noundef %0, ptr noundef %2, i32 noundef %5, i32 noundef 0)
  %7 = tail call i32 @tvb_get_ntohl(ptr noundef %0, i32 noundef %6)
  %8 = load i32, ptr @hf_gluster_op_errno, align 4
  %9 = tail call ptr @proto_tree_add_int(ptr noundef %2, i32 noundef %8, ptr noundef %0, i32 noundef %6, i32 noundef 4, i32 noundef %7)
  %10 = tail call ptr @val_to_str_ext_const(i32 noundef %7, ptr noundef nonnull @glusterfs_error_codes_ext, ptr noundef nonnull @.str.12)
  tail call void (ptr, ptr, ...) @proto_item_append_text(ptr noundef %9, ptr noundef nonnull @.str.11, ptr noundef %10)
  %11 = add i32 %6, 4
  %12 = tail call fastcc i32 @glusterfs_rpc_dissect_gf_2_flock(ptr noundef %2, ptr noundef %0, i32 noundef %11)
  %13 = load i32, ptr @hf_glusterfs_dict, align 4
  %14 = tail call i32 @gluster_rpc_dissect_dict(ptr noundef %2, ptr noundef %0, i32 noundef %13, i32 noundef %12)
  ret i32 %14
}